; Function Attrs: mustprogress nounwind uwtable
define dso_local void @_ZNK4llvm2cl5alias15printOptionInfoEm(ptr nocapture noundef nonnull readonly align 8 dereferenceable(136) %0, i64 noundef %1) unnamed_addr #0 align 2 {
_ZL19argPlusPrefixesSizeN4llvm9StringRefEm.exit:
  %2 = alloca %"class.(anonymous namespace)::PrintArg", align 8
  %3 = tail call noundef nonnull align 8 dereferenceable(96) ptr @_ZN4llvm4outsEv() #25
  %4 = getelementptr inbounds nuw i8, ptr %0, i64 16
  %.sroa.03.0.copyload = load ptr, ptr %4, align 8
  %.sroa.24.0..sroa_idx = getelementptr inbounds i8, ptr %0, i64 24
  %.sroa.24.0.copyload = load i64, ptr %.sroa.24.0..sroa_idx, align 8
  store ptr %.sroa.03.0.copyload, ptr %2, align 8
  %.sroa.2.0..sroa_idx.i = getelementptr inbounds i8, ptr %2, i64 8
  store i64 %.sroa.24.0.copyload, ptr %.sroa.2.0..sroa_idx.i, align 8
  %5 = getelementptr inbounds nuw i8, ptr %2, i64 16
  store i64 2, ptr %5, align 8
  %6 = call fastcc noundef nonnull align 8 dereferenceable(48) ptr @_ZN12_GLOBAL__N_1lsERN4llvm11raw_ostreamERKNS_8PrintArgE(ptr noundef nonnull align 8 dereferenceable(48) %3, ptr noundef nonnull align 8 dereferenceable(24) %2)
  %7 = getelementptr inbounds nuw i8, ptr %0, i64 32
  %.sroa.01.0.copyload = load ptr, ptr %7, align 8
  %.sroa.22.0..sroa_idx = getelementptr inbounds i8, ptr %0, i64 40
  %.sroa.22.0.copyload = load i64, ptr %.sroa.22.0..sroa_idx, align 8
  %.sroa.2.0.copyload = load i64, ptr %.sroa.24.0..sroa_idx, align 8
  %8 = icmp eq i64 %.sroa.2.0.copyload, 1
  %9 = add i64 %.sroa.2.0.copyload, 7
  %.sink.i = select i1 %8, i64 7, i64 %9
  tail call void @_ZN4llvm2cl6Option12printHelpStrENS_9StringRefEmm(ptr %.sroa.01.0.copyload, i64 %.sroa.22.0.copyload, i64 noundef %1, i64 noundef %.sink.i)
  ret void
}